target datalayout = "e-m:e-p270:32:32-p271:32:32-p272:64:64-i64:64-i128:128-f80:128-n8:16:32:64-S128"
target triple = "x86_64-pc-linux-gnu"

%struct.elist = type { ptr, i64 }
%struct.Agobj_s = type { %struct.Agtag_s, ptr }
%struct.Agtag_s = type { i32, i64 }
%struct.Agrec_s = type { ptr, ptr }
%struct.boxf = type { %struct.pointf_s, %struct.pointf_s }
%struct.pointf_s = type { double, double }
%struct.Agnodeinfo_t = type { %struct.Agrec_s, ptr, ptr, %struct.pointf_s, double, double, %struct.boxf, double, double, double, double, double, ptr, ptr, ptr, i8, i8, i8, i8, i32, i32, i32, ptr, double, i8, i8, ptr, ptr, i8, i64, i8, i8, i8, ptr, ptr, %struct.elist, %struct.elist, %struct.elist, %struct.elist, %struct.elist, ptr, i32, ptr, i32, i32, double, %struct.elist, %struct.elist, %struct.elist, %struct.elist, ptr, i32, i32, i32, [1 x double] }
%struct.Agedgeinfo_t = type { %struct.Agrec_s, ptr, %struct.port, %struct.port, ptr, ptr, ptr, ptr, i8, i8, i8, i8, i8, ptr, ptr, double, double, %struct.Ppoly_t, i8, i8, i16, i32, i32, i32, i16, i32, ptr }
%struct.port = type { %struct.pointf_s, double, ptr, i8, i8, i8, i8, i8, i8, ptr }
%struct.Ppoly_t = type { ptr, i64 }
%struct.Agedge_s = type { %struct.Agobj_s, %struct.dtlink_s_, %struct.dtlink_s_, ptr }
%struct.dtlink_s_ = type { ptr, %union.anon }
%union.anon = type { ptr }

; Function Attrs: nounwind uwtable
define internal i32 @tight_subtree_search(ptr noundef %0, ptr noundef %1) #0 {
  %3 = alloca i32, align 4
  %4 = alloca ptr, align 8
  %5 = alloca ptr, align 8
  %6 = alloca ptr, align 8
  %7 = alloca i32, align 4
  %8 = alloca i32, align 4
  %9 = alloca i32, align 4
  store ptr %0, ptr %4, align 8, !tbaa !48
  store ptr %1, ptr %5, align 8, !tbaa !96
  call void @llvm.lifetime.start.p0(i64 8, ptr %6) #14
  call void @llvm.lifetime.start.p0(i64 4, ptr %7) #14
  call void @llvm.lifetime.start.p0(i64 4, ptr %8) #14
  store i32 1, ptr %8, align 4, !tbaa !8
  %10 = load ptr, ptr %5, align 8, !tbaa !96
  %11 = load ptr, ptr %4, align 8, !tbaa !48
  %12 = getelementptr inbounds nuw %struct.Agobj_s, ptr %11, i32 0, i32 1
  %13 = load ptr, ptr %12, align 8, !tbaa !27
  %14 = getelementptr inbounds nuw %struct.Agnodeinfo_t, ptr %13, i32 0, i32 50
  store ptr %10, ptr %14, align 8, !tbaa !92
  store i32 0, ptr %7, align 4, !tbaa !8
  br label %15

15:                                               ; preds = %125, %2
  %16 = load ptr, ptr %4, align 8, !tbaa !48
  %17 = getelementptr inbounds nuw %struct.Agobj_s, ptr %16, i32 0, i32 1
  %18 = load ptr, ptr %17, align 8, !tbaa !27
  %19 = getelementptr inbounds nuw %struct.Agnodeinfo_t, ptr %18, i32 0, i32 35
  %20 = getelementptr inbounds nuw %struct.elist, ptr %19, i32 0, i32 0
  %21 = load ptr, ptr %20, align 8, !tbaa !64
  %22 = load i32, ptr %7, align 4, !tbaa !8
  %23 = sext i32 %22 to i64
  %24 = getelementptr inbounds ptr, ptr %21, i64 %23
  %25 = load ptr, ptr %24, align 8, !tbaa !19
  store ptr %25, ptr %6, align 8, !tbaa !19
  %26 = icmp ne ptr %25, null
  br i1 %26, label %27, label %128

27:                                               ; preds = %15
  %28 = load ptr, ptr %6, align 8, !tbaa !19
  %29 = getelementptr inbounds nuw %struct.Agobj_s, ptr %28, i32 0, i32 1
  %30 = load ptr, ptr %29, align 8, !tbaa !27
  %31 = getelementptr inbounds nuw %struct.Agedgeinfo_t, ptr %30, i32 0, i32 23
  %32 = load i32, ptr %31, align 4, !tbaa !71
  %33 = icmp sge i32 %32, 0
  br i1 %33, label %34, label %35

34:                                               ; preds = %27
  br label %125

35:                                               ; preds = %27
  %36 = load ptr, ptr %6, align 8, !tbaa !19
  %37 = getelementptr inbounds nuw %struct.Agobj_s, ptr %36, i32 0, i32 0
  %38 = load i32, ptr %37, align 8
  %39 = and i32 %38, 3
  %40 = icmp eq i32 %39, 3
  br i1 %40, label %41, label %43

41:                                               ; preds = %35
  %42 = load ptr, ptr %6, align 8, !tbaa !19
  br label %46

43:                                               ; preds = %35
  %44 = load ptr, ptr %6, align 8, !tbaa !19
  %45 = getelementptr inbounds %struct.Agedge_s, ptr %44, i64 1
  br label %46

46:                                               ; preds = %43, %41
  %47 = phi ptr [ %42, %41 ], [ %45, %43 ]
  %48 = getelementptr inbounds nuw %struct.Agedge_s, ptr %47, i32 0, i32 3
  %49 = load ptr, ptr %48, align 8, !tbaa !72
  %50 = getelementptr inbounds nuw %struct.Agobj_s, ptr %49, i32 0, i32 1
  %51 = load ptr, ptr %50, align 8, !tbaa !27
  %52 = getelementptr inbounds nuw %struct.Agnodeinfo_t, ptr %51, i32 0, i32 50
  %53 = load ptr, ptr %52, align 8, !tbaa !92
  %54 = icmp eq ptr %53, null
  br i1 %54, label %55, label %124

55:                                               ; preds = %46
  %56 = load ptr, ptr %6, align 8, !tbaa !19
  %57 = getelementptr inbounds nuw %struct.Agobj_s, ptr %56, i32 0, i32 0
  %58 = load i32, ptr %57, align 8
  %59 = and i32 %58, 3
  %60 = icmp eq i32 %59, 2
  br i1 %60, label %61, label %63

61:                                               ; preds = %55
  %62 = load ptr, ptr %6, align 8, !tbaa !19
  br label %66

63:                                               ; preds = %55
  %64 = load ptr, ptr %6, align 8, !tbaa !19
  %65 = getelementptr inbounds %struct.Agedge_s, ptr %64, i64 -1
  br label %66

66:                                               ; preds = %63, %61
  %67 = phi ptr [ %62, %61 ], [ %65, %63 ]
  %68 = getelementptr inbounds nuw %struct.Agedge_s, ptr %67, i32 0, i32 3
  %69 = load ptr, ptr %68, align 8, !tbaa !72
  %70 = getelementptr inbounds nuw %struct.Agobj_s, ptr %69, i32 0, i32 1
  %71 = load ptr, ptr %70, align 8, !tbaa !27
  %72 = getelementptr inbounds nuw %struct.Agnodeinfo_t, ptr %71, i32 0, i32 43
  %73 = load i32, ptr %72, align 8, !tbaa !76
  %74 = load ptr, ptr %6, align 8, !tbaa !19
  %75 = getelementptr inbounds nuw %struct.Agobj_s, ptr %74, i32 0, i32 0
  %76 = load i32, ptr %75, align 8
  %77 = and i32 %76, 3
  %78 = icmp eq i32 %77, 3
  br i1 %78, label %79, label %81

79:                                               ; preds = %66
  %80 = load ptr, ptr %6, align 8, !tbaa !19
  br label %84

81:                                               ; preds = %66
  %82 = load ptr, ptr %6, align 8, !tbaa !19
  %83 = getelementptr inbounds %struct.Agedge_s, ptr %82, i64 1
  br label %84

84:                                               ; preds = %81, %79
  %85 = phi ptr [ %80, %79 ], [ %83, %81 ]
  %86 = getelementptr inbounds nuw %struct.Agedge_s, ptr %85, i32 0, i32 3
  %87 = load ptr, ptr %86, align 8, !tbaa !72
  %88 = getelementptr inbounds nuw %struct.Agobj_s, ptr %87, i32 0, i32 1
  %89 = load ptr, ptr %88, align 8, !tbaa !27
  %90 = getelementptr inbounds nuw %struct.Agnodeinfo_t, ptr %89, i32 0, i32 43
  %91 = load i32, ptr %90, align 8, !tbaa !76
  %92 = sub nsw i32 %73, %91
  %93 = load ptr, ptr %6, align 8, !tbaa !19
  %94 = getelementptr inbounds nuw %struct.Agobj_s, ptr %93, i32 0, i32 1
  %95 = load ptr, ptr %94, align 8, !tbaa !27
  %96 = getelementptr inbounds nuw %struct.Agedgeinfo_t, ptr %95, i32 0, i32 25
  %97 = load i32, ptr %96, align 4, !tbaa !77
  %98 = sub nsw i32 %92, %97
  %99 = icmp eq i32 %98, 0
  br i1 %99, label %100, label %124

100:                                              ; preds = %84
  %101 = load ptr, ptr %6, align 8, !tbaa !19
  %102 = call i32 @add_tree_edge(ptr noundef %101)
  %103 = icmp ne i32 %102, 0
  br i1 %103, label %104, label %105

104:                                              ; preds = %100
  store i32 -1, ptr %3, align 4
  store i32 1, ptr %9, align 4
  br label %244

105:                                              ; preds = %100
  %106 = load ptr, ptr %6, align 8, !tbaa !19
  %107 = getelementptr inbounds nuw %struct.Agobj_s, ptr %106, i32 0, i32 0
  %108 = load i32, ptr %107, align 8
  %109 = and i32 %108, 3
  %110 = icmp eq i32 %109, 3
  br i1 %110, label %111, label %113

111:                                              ; preds = %105
  %112 = load ptr, ptr %6, align 8, !tbaa !19
  br label %116

113:                                              ; preds = %105
  %114 = load ptr, ptr %6, align 8, !tbaa !19
  %115 = getelementptr inbounds %struct.Agedge_s, ptr %114, i64 1
  br label %116

116:                                              ; preds = %113, %111
  %117 = phi ptr [ %112, %111 ], [ %115, %113 ]
  %118 = getelementptr inbounds nuw %struct.Agedge_s, ptr %117, i32 0, i32 3
  %119 = load ptr, ptr %118, align 8, !tbaa !72
  %120 = load ptr, ptr %5, align 8, !tbaa !96
  %121 = call i32 @tight_subtree_search(ptr noundef %119, ptr noundef %120)
  %122 = load i32, ptr %8, align 4, !tbaa !8
  %123 = add nsw i32 %122, %121
  store i32 %123, ptr %8, align 4, !tbaa !8
  br label %124

124:                                              ; preds = %116, %84, %46
  br label %125

125:                                              ; preds = %124, %34
  %126 = load i32, ptr %7, align 4, !tbaa !8
  %127 = add nsw i32 %126, 1
  store i32 %127, ptr %7, align 4, !tbaa !8
  br label %15, !llvm.loop !144

128:                                              ; preds = %15
  store i32 0, ptr %7, align 4, !tbaa !8
  br label %129

129:                                              ; preds = %239, %128
  %130 = load ptr, ptr %4, align 8, !tbaa !48
  %131 = getelementptr inbounds nuw %struct.Agobj_s, ptr %130, i32 0, i32 1
  %132 = load ptr, ptr %131, align 8, !tbaa !27
  %133 = getelementptr inbounds nuw %struct.Agnodeinfo_t, ptr %132, i32 0, i32 36
  %134 = getelementptr inbounds nuw %struct.elist, ptr %133, i32 0, i32 0
  %135 = load ptr, ptr %134, align 8, !tbaa !49
  %136 = load i32, ptr %7, align 4, !tbaa !8
  %137 = sext i32 %136 to i64
  %138 = getelementptr inbounds ptr, ptr %135, i64 %137
  %139 = load ptr, ptr %138, align 8, !tbaa !19
  store ptr %139, ptr %6, align 8, !tbaa !19
  %140 = icmp ne ptr %139, null
  br i1 %140, label %141, label %242

141:                                              ; preds = %129
  %142 = load ptr, ptr %6, align 8, !tbaa !19
  %143 = getelementptr inbounds nuw %struct.Agobj_s, ptr %142, i32 0, i32 1
  %144 = load ptr, ptr %143, align 8, !tbaa !27
  %145 = getelementptr inbounds nuw %struct.Agedgeinfo_t, ptr %144, i32 0, i32 23
  %146 = load i32, ptr %145, align 4, !tbaa !71
  %147 = icmp sge i32 %146, 0
  br i1 %147, label %148, label %149

148:                                              ; preds = %141
  br label %239

149:                                              ; preds = %141
  %150 = load ptr, ptr %6, align 8, !tbaa !19
  %151 = getelementptr inbounds nuw %struct.Agobj_s, ptr %150, i32 0, i32 0
  %152 = load i32, ptr %151, align 8
  %153 = and i32 %152, 3
  %154 = icmp eq i32 %153, 2
  br i1 %154, label %155, label %157

155:                                              ; preds = %149
  %156 = load ptr, ptr %6, align 8, !tbaa !19
  br label %160

157:                                              ; preds = %149
  %158 = load ptr, ptr %6, align 8, !tbaa !19
  %159 = getelementptr inbounds %struct.Agedge_s, ptr %158, i64 -1
  br label %160

160:                                              ; preds = %157, %155
  %161 = phi ptr [ %156, %155 ], [ %159, %157 ]
  %162 = getelementptr inbounds nuw %struct.Agedge_s, ptr %161, i32 0, i32 3
  %163 = load ptr, ptr %162, align 8, !tbaa !72
  %164 = getelementptr inbounds nuw %struct.Agobj_s, ptr %163, i32 0, i32 1
  %165 = load ptr, ptr %164, align 8, !tbaa !27
  %166 = getelementptr inbounds nuw %struct.Agnodeinfo_t, ptr %165, i32 0, i32 50
  %167 = load ptr, ptr %166, align 8, !tbaa !92
  %168 = icmp eq ptr %167, null
  br i1 %168, label %169, label %238

169:                                              ; preds = %160
  %170 = load ptr, ptr %6, align 8, !tbaa !19
  %171 = getelementptr inbounds nuw %struct.Agobj_s, ptr %170, i32 0, i32 0
  %172 = load i32, ptr %171, align 8
  %173 = and i32 %172, 3
  %174 = icmp eq i32 %173, 2
  br i1 %174, label %175, label %177

175:                                              ; preds = %169
  %176 = load ptr, ptr %6, align 8, !tbaa !19
  br label %180

177:                                              ; preds = %169
  %178 = load ptr, ptr %6, align 8, !tbaa !19
  %179 = getelementptr inbounds %struct.Agedge_s, ptr %178, i64 -1
  br label %180

180:                                              ; preds = %177, %175
  %181 = phi ptr [ %176, %175 ], [ %179, %177 ]
  %182 = getelementptr inbounds nuw %struct.Agedge_s, ptr %181, i32 0, i32 3
  %183 = load ptr, ptr %182, align 8, !tbaa !72
  %184 = getelementptr inbounds nuw %struct.Agobj_s, ptr %183, i32 0, i32 1
  %185 = load ptr, ptr %184, align 8, !tbaa !27
  %186 = getelementptr inbounds nuw %struct.Agnodeinfo_t, ptr %185, i32 0, i32 43
  %187 = load i32, ptr %186, align 8, !tbaa !76
  %188 = load ptr, ptr %6, align 8, !tbaa !19
  %189 = getelementptr inbounds nuw %struct.Agobj_s, ptr %188, i32 0, i32 0
  %190 = load i32, ptr %189, align 8
  %191 = and i32 %190, 3
  %192 = icmp eq i32 %191, 3
  br i1 %192, label %193, label %195

193:                                              ; preds = %180
  %194 = load ptr, ptr %6, align 8, !tbaa !19
  br label %198

195:                                              ; preds = %180
  %196 = load ptr, ptr %6, align 8, !tbaa !19
  %197 = getelementptr inbounds %struct.Agedge_s, ptr %196, i64 1
  br label %198

198:                                              ; preds = %195, %193
  %199 = phi ptr [ %194, %193 ], [ %197, %195 ]
  %200 = getelementptr inbounds nuw %struct.Agedge_s, ptr %199, i32 0, i32 3
  %201 = load ptr, ptr %200, align 8, !tbaa !72
  %202 = getelementptr inbounds nuw %struct.Agobj_s, ptr %201, i32 0, i32 1
  %203 = load ptr, ptr %202, align 8, !tbaa !27
  %204 = getelementptr inbounds nuw %struct.Agnodeinfo_t, ptr %203, i32 0, i32 43
  %205 = load i32, ptr %204, align 8, !tbaa !76
  %206 = sub nsw i32 %187, %205
  %207 = load ptr, ptr %6, align 8, !tbaa !19
  %208 = getelementptr inbounds nuw %struct.Agobj_s, ptr %207, i32 0, i32 1
  %209 = load ptr, ptr %208, align 8, !tbaa !27
  %210 = getelementptr inbounds nuw %struct.Agedgeinfo_t, ptr %209, i32 0, i32 25
  %211 = load i32, ptr %210, align 4, !tbaa !77
  %212 = sub nsw i32 %206, %211
  %213 = icmp eq i32 %212, 0
  br i1 %213, label %214, label %238

214:                                              ; preds = %198
  %215 = load ptr, ptr %6, align 8, !tbaa !19
  %216 = call i32 @add_tree_edge(ptr noundef %215)
  %217 = icmp ne i32 %216, 0
  br i1 %217, label %218, label %219

218:                                              ; preds = %214
  store i32 -1, ptr %3, align 4
  store i32 1, ptr %9, align 4
  br label %244

219:                                              ; preds = %214
  %220 = load ptr, ptr %6, align 8, !tbaa !19
  %221 = getelementptr inbounds nuw %struct.Agobj_s, ptr %220, i32 0, i32 0
  %222 = load i32, ptr %221, align 8
  %223 = and i32 %222, 3
  %224 = icmp eq i32 %223, 2
  br i1 %224, label %225, label %227

225:                                              ; preds = %219
  %226 = load ptr, ptr %6, align 8, !tbaa !19
  br label %230

227:                                              ; preds = %219
  %228 = load ptr, ptr %6, align 8, !tbaa !19
  %229 = getelementptr inbounds %struct.Agedge_s, ptr %228, i64 -1
  br label %230

230:                                              ; preds = %227, %225
  %231 = phi ptr [ %226, %225 ], [ %229, %227 ]
  %232 = getelementptr inbounds nuw %struct.Agedge_s, ptr %231, i32 0, i32 3
  %233 = load ptr, ptr %232, align 8, !tbaa !72
  %234 = load ptr, ptr %5, align 8, !tbaa !96
  %235 = call i32 @tight_subtree_search(ptr noundef %233, ptr noundef %234)
  %236 = load i32, ptr %8, align 4, !tbaa !8
  %237 = add nsw i32 %236, %235
  store i32 %237, ptr %8, align 4, !tbaa !8
  br label %238

238:                                              ; preds = %230, %198, %160
  br label %239

239:                                              ; preds = %238, %148
  %240 = load i32, ptr %7, align 4, !tbaa !8
  %241 = add nsw i32 %240, 1
  store i32 %241, ptr %7, align 4, !tbaa !8
  br label %129, !llvm.loop !145

242:                                              ; preds = %129
  %243 = load i32, ptr %8, align 4, !tbaa !8
  store i32 %243, ptr %3, align 4
  store i32 1, ptr %9, align 4
  br label %244

244:                                              ; preds = %242, %218, %104
  call void @llvm.lifetime.end.p0(i64 4, ptr %8) #14
  call void @llvm.lifetime.end.p0(i64 4, ptr %7) #14
  call void @llvm.lifetime.end.p0(i64 8, ptr %6) #14
  %245 = load i32, ptr %3, align 4
  ret i32 %245
}