; Function Attrs: nounwind uwtable
define internal fastcc i32 @tight_subtree_search(ptr noundef readonly captures(none) %0, ptr noundef %1) unnamed_addr #0 {
  %3 = getelementptr inbounds nuw i8, ptr %0, i64 16
  %4 = load ptr, ptr %3, align 8, !tbaa !6
  %5 = getelementptr inbounds nuw i8, ptr %4, i64 440
  store ptr %1, ptr %5, align 8, !tbaa !74
  %6 = getelementptr inbounds nuw i8, ptr %4, i64 256
  %7 = load ptr, ptr %6, align 8, !tbaa !47
  %8 = load ptr, ptr %7, align 8, !tbaa !30
  %.not54 = icmp eq ptr %8, null
  br i1 %.not54, label %.preheader, label %.lr.ph

.preheader:                                       ; preds = %59, %2
  %9 = phi ptr [ %4, %2 ], [ %60, %59 ]
  %.0.lcssa = phi i32 [ 1, %2 ], [ %.1, %59 ]
  %10 = getelementptr inbounds nuw i8, ptr %9, i64 272
  %11 = load ptr, ptr %10, align 8, !tbaa !15
  %12 = load ptr, ptr %11, align 8, !tbaa !30
  %.not4857 = icmp eq ptr %12, null
  br i1 %.not4857, label %.loopexit, label %.lr.ph60

.lr.ph:                                           ; preds = %2, %59
  %13 = phi ptr [ %60, %59 ], [ %4, %2 ]
  %indvars.iv = phi i64 [ %indvars.iv.next, %59 ], [ 0, %2 ]
  %14 = phi ptr [ %64, %59 ], [ %8, %2 ]
  %.056 = phi i32 [ %.1, %59 ], [ 1, %2 ]
  %15 = getelementptr inbounds nuw i8, ptr %14, i64 16
  %16 = load ptr, ptr %15, align 8, !tbaa !6
  %17 = getelementptr inbounds nuw i8, ptr %16, i64 220
  %18 = load i32, ptr %17, align 4, !tbaa !55
  %19 = icmp sgt i32 %18, -1
  br i1 %19, label %59, label %20

20:                                               ; preds = %.lr.ph
  %21 = load i32, ptr %14, align 8
  %22 = and i32 %21, 3
  %23 = icmp eq i32 %22, 3
  %24 = getelementptr inbounds nuw i8, ptr %14, i64 64
  %25 = select i1 %23, ptr %14, ptr %24
  %26 = getelementptr inbounds nuw i8, ptr %25, i64 56
  %27 = load ptr, ptr %26, align 8, !tbaa !56
  %28 = getelementptr inbounds nuw i8, ptr %27, i64 16
  %29 = load ptr, ptr %28, align 8, !tbaa !6
  %30 = getelementptr inbounds nuw i8, ptr %29, i64 440
  %31 = load ptr, ptr %30, align 8, !tbaa !74
  %32 = icmp eq ptr %31, null
  br i1 %32, label %33, label %59

33:                                               ; preds = %20
  %34 = icmp eq i32 %22, 2
  %.idx50 = select i1 %34, i64 0, i64 -64
  %35 = getelementptr inbounds i8, ptr %14, i64 %.idx50
  %36 = getelementptr inbounds nuw i8, ptr %35, i64 56
  %37 = load ptr, ptr %36, align 8, !tbaa !56
  %38 = getelementptr inbounds nuw i8, ptr %37, i64 16
  %39 = load ptr, ptr %38, align 8, !tbaa !6
  %40 = getelementptr inbounds nuw i8, ptr %39, i64 360
  %41 = load i32, ptr %40, align 8, !tbaa !60
  %42 = getelementptr inbounds nuw i8, ptr %29, i64 360
  %43 = load i32, ptr %42, align 8, !tbaa !60
  %44 = getelementptr inbounds nuw i8, ptr %16, i64 228
  %45 = load i32, ptr %44, align 4, !tbaa !61
  %46 = add i32 %45, %43
  %47 = icmp eq i32 %41, %46
  br i1 %47, label %48, label %59

48:                                               ; preds = %33
  %49 = tail call fastcc i32 @add_tree_edge(ptr noundef %14)
  %.not51 = icmp eq i32 %49, 0
  br i1 %.not51, label %50, label %.loopexit

50:                                               ; preds = %48
  %51 = load i32, ptr %14, align 8
  %52 = and i32 %51, 3
  %53 = icmp eq i32 %52, 3
  %54 = select i1 %53, ptr %14, ptr %24
  %55 = getelementptr inbounds nuw i8, ptr %54, i64 56
  %56 = load ptr, ptr %55, align 8, !tbaa !56
  %57 = tail call fastcc i32 @tight_subtree_search(ptr noundef %56, ptr noundef %1)
  %58 = add nsw i32 %57, %.056
  %.pre = load ptr, ptr %3, align 8, !tbaa !6
  br label %59

59:                                               ; preds = %20, %33, %50, %.lr.ph
  %60 = phi ptr [ %13, %.lr.ph ], [ %.pre, %50 ], [ %13, %33 ], [ %13, %20 ]
  %.1 = phi i32 [ %.056, %.lr.ph ], [ %58, %50 ], [ %.056, %33 ], [ %.056, %20 ]
  %indvars.iv.next = add nuw nsw i64 %indvars.iv, 1
  %61 = getelementptr inbounds nuw i8, ptr %60, i64 256
  %62 = load ptr, ptr %61, align 8, !tbaa !47
  %63 = getelementptr inbounds nuw ptr, ptr %62, i64 %indvars.iv.next
  %64 = load ptr, ptr %63, align 8, !tbaa !30
  %.not = icmp eq ptr %64, null
  br i1 %.not, label %.preheader, label %.lr.ph, !llvm.loop !130

.lr.ph60:                                         ; preds = %.preheader, %111
  %65 = phi ptr [ %112, %111 ], [ %9, %.preheader ]
  %indvars.iv66 = phi i64 [ %indvars.iv.next67, %111 ], [ 0, %.preheader ]
  %66 = phi ptr [ %116, %111 ], [ %12, %.preheader ]
  %.259 = phi i32 [ %.3, %111 ], [ %.0.lcssa, %.preheader ]
  %67 = getelementptr inbounds nuw i8, ptr %66, i64 16
  %68 = load ptr, ptr %67, align 8, !tbaa !6
  %69 = getelementptr inbounds nuw i8, ptr %68, i64 220
  %70 = load i32, ptr %69, align 4, !tbaa !55
  %71 = icmp sgt i32 %70, -1
  br i1 %71, label %111, label %72

72:                                               ; preds = %.lr.ph60
  %73 = load i32, ptr %66, align 8
  %74 = and i32 %73, 3
  %75 = icmp eq i32 %74, 2
  %76 = getelementptr inbounds i8, ptr %66, i64 -64
  %77 = select i1 %75, ptr %66, ptr %76
  %78 = getelementptr inbounds nuw i8, ptr %77, i64 56
  %79 = load ptr, ptr %78, align 8, !tbaa !56
  %80 = getelementptr inbounds nuw i8, ptr %79, i64 16
  %81 = load ptr, ptr %80, align 8, !tbaa !6
  %82 = getelementptr inbounds nuw i8, ptr %81, i64 440
  %83 = load ptr, ptr %82, align 8, !tbaa !74
  %84 = icmp eq ptr %83, null
  br i1 %84, label %85, label %111

85:                                               ; preds = %72
  %86 = getelementptr inbounds nuw i8, ptr %81, i64 360
  %87 = load i32, ptr %86, align 8, !tbaa !60
  %88 = icmp eq i32 %74, 3
  %.idx = select i1 %88, i64 0, i64 64
  %89 = getelementptr inbounds nuw i8, ptr %66, i64 %.idx
  %90 = getelementptr inbounds nuw i8, ptr %89, i64 56
  %91 = load ptr, ptr %90, align 8, !tbaa !56
  %92 = getelementptr inbounds nuw i8, ptr %91, i64 16
  %93 = load ptr, ptr %92, align 8, !tbaa !6
  %94 = getelementptr inbounds nuw i8, ptr %93, i64 360
  %95 = load i32, ptr %94, align 8, !tbaa !60
  %96 = getelementptr inbounds nuw i8, ptr %68, i64 228
  %97 = load i32, ptr %96, align 4, !tbaa !61
  %98 = add i32 %97, %95
  %99 = icmp eq i32 %87, %98
  br i1 %99, label %100, label %111

100:                                              ; preds = %85
  %101 = tail call fastcc i32 @add_tree_edge(ptr noundef %66)
  %.not49 = icmp eq i32 %101, 0
  br i1 %.not49, label %102, label %.loopexit

102:                                              ; preds = %100
  %103 = load i32, ptr %66, align 8
  %104 = and i32 %103, 3
  %105 = icmp eq i32 %104, 2
  %106 = select i1 %105, ptr %66, ptr %76
  %107 = getelementptr inbounds nuw i8, ptr %106, i64 56
  %108 = load ptr, ptr %107, align 8, !tbaa !56
  %109 = tail call fastcc i32 @tight_subtree_search(ptr noundef %108, ptr noundef %1)
  %110 = add nsw i32 %109, %.259
  %.pre69 = load ptr, ptr %3, align 8, !tbaa !6
  br label %111

111:                                              ; preds = %72, %85, %102, %.lr.ph60
  %112 = phi ptr [ %65, %.lr.ph60 ], [ %.pre69, %102 ], [ %65, %85 ], [ %65, %72 ]
  %.3 = phi i32 [ %.259, %.lr.ph60 ], [ %110, %102 ], [ %.259, %85 ], [ %.259, %72 ]
  %indvars.iv.next67 = add nuw nsw i64 %indvars.iv66, 1
  %113 = getelementptr inbounds nuw i8, ptr %112, i64 272
  %114 = load ptr, ptr %113, align 8, !tbaa !15
  %115 = getelementptr inbounds nuw ptr, ptr %114, i64 %indvars.iv.next67
  %116 = load ptr, ptr %115, align 8, !tbaa !30
  %.not48 = icmp eq ptr %116, null
  br i1 %.not48, label %.loopexit, label %.lr.ph60, !llvm.loop !131

.loopexit:                                        ; preds = %48, %100, %111, %.preheader
  %.045 = phi i32 [ %.0.lcssa, %.preheader ], [ -1, %100 ], [ %.3, %111 ], [ -1, %48 ]
  ret i32 %.045
}